; Function Attrs: mustprogress nounwind uwtable
define hidden noundef ptr @_ZNK4llvh23ItaniumPartialDemangler21getFunctionReturnTypeEPcPm(ptr nocapture noundef nonnull readonly align 8 dereferenceable(16) %this, ptr noundef %Buf, ptr noundef %N) local_unnamed_addr #1 align 2 {
entry:
  %S = alloca %class.OutputStream, align 8
  %0 = load ptr, ptr %this, align 8
  %K.i.i = getelementptr inbounds i8, ptr %0, i64 8
  %1 = load i8, ptr %K.i.i, align 8
  %cmp.i = icmp eq i8 %1, 18
  br i1 %cmp.i, label %if.end, label %return

if.end:                                           ; preds = %entry
  %CurrentPackIndex.i = getelementptr inbounds i8, ptr %S, i64 24
  store i32 -1, ptr %CurrentPackIndex.i, align 8
  %CurrentPackMax.i = getelementptr inbounds i8, ptr %S, i64 28
  store i32 -1, ptr %CurrentPackMax.i, align 4
  %cmp.i4 = icmp eq ptr %Buf, null
  br i1 %cmp.i4, label %if.then.i, label %if.else.i

if.then.i:                                        ; preds = %if.end
  %call.i = tail call noalias dereferenceable_or_null(128) ptr @malloc(i64 noundef 128) #19
  %cmp1.i = icmp eq ptr %call.i, null
  br i1 %cmp1.i, label %return, label %if.end4

if.else.i:                                        ; preds = %if.end
  %2 = load i64, ptr %N, align 8
  br label %if.end4

if.end4:                                          ; preds = %if.else.i, %if.then.i
  %Buf.addr.0.i = phi ptr [ %Buf, %if.else.i ], [ %call.i, %if.then.i ]
  %BufferSize.0.i = phi i64 [ %2, %if.else.i ], [ 128, %if.then.i ]
  %CurrentPosition.i.i = getelementptr inbounds i8, ptr %S, i64 8
  store i64 0, ptr %CurrentPosition.i.i, align 8
  store ptr %Buf.addr.0.i, ptr %S, align 8
  %BufferCapacity.i.i = getelementptr inbounds i8, ptr %S, i64 16
  store i64 %BufferSize.0.i, ptr %BufferCapacity.i.i, align 8
  %Ret.i = getelementptr inbounds i8, ptr %0, i64 16
  %3 = load ptr, ptr %Ret.i, align 8
  %tobool.not = icmp eq ptr %3, null
  br i1 %tobool.not, label %if.end7, label %if.then6

if.then6:                                         ; preds = %if.end4
  %vtable.i = load ptr, ptr %3, align 8
  %vfn.i = getelementptr inbounds i8, ptr %vtable.i, i64 32
  %4 = load ptr, ptr %vfn.i, align 8
  call void %4(ptr noundef nonnull align 8 dereferenceable(12) %3, ptr noundef nonnull align 8 dereferenceable(32) %S) #20
  %RHSComponentCache.i = getelementptr inbounds i8, ptr %3, i64 9
  %5 = load i8, ptr %RHSComponentCache.i, align 1
  %cmp.not.i = icmp eq i8 %5, 1
  br i1 %cmp.not.i, label %if.end7, label %if.then.i5

if.then.i5:                                       ; preds = %if.then6
  %vtable2.i = load ptr, ptr %3, align 8
  %vfn3.i = getelementptr inbounds i8, ptr %vtable2.i, i64 40
  %6 = load ptr, ptr %vfn3.i, align 8
  call void %6(ptr noundef nonnull align 8 dereferenceable(12) %3, ptr noundef nonnull align 8 dereferenceable(32) %S) #20
  br label %if.end7

if.end7:                                          ; preds = %if.then.i5, %if.then6, %if.end4
  %7 = load i64, ptr %CurrentPosition.i.i, align 8
  %add.i.i = add i64 %7, 1
  %8 = load i64, ptr %BufferCapacity.i.i, align 8
  %cmp.not.i.i = icmp ult i64 %add.i.i, %8
  %.pre.i = load ptr, ptr %S, align 8
  br i1 %cmp.not.i.i, label %_ZN12OutputStreampLEc.exit, label %if.then.i.i

if.then.i.i:                                      ; preds = %if.end7
  %mul.i.i = shl i64 %8, 1
  %spec.store.select.i.i = call i64 @llvm.umax.i64(i64 %mul.i.i, i64 %add.i.i)
  store i64 %spec.store.select.i.i, ptr %BufferCapacity.i.i, align 8
  %call.i.i = call ptr @realloc(ptr noundef %.pre.i, i64 noundef %spec.store.select.i.i) #21
  store ptr %call.i.i, ptr %S, align 8
  %cmp14.i.i = icmp eq ptr %call.i.i, null
  br i1 %cmp14.i.i, label %if.then15.i.i, label %if.then.i._ZN12OutputStream4growEm.exit_crit_edge.i

if.then.i._ZN12OutputStream4growEm.exit_crit_edge.i: ; preds = %if.then.i.i
  %.pre1.i = load i64, ptr %CurrentPosition.i.i, align 8
  %.pre2.i = add i64 %.pre1.i, 1
  br label %_ZN12OutputStreampLEc.exit

if.then15.i.i:                                    ; preds = %if.then.i.i
  call void @_ZSt9terminatev() #22
  unreachable

_ZN12OutputStreampLEc.exit:                       ; preds = %if.end7, %if.then.i._ZN12OutputStream4growEm.exit_crit_edge.i
  %inc.pre-phi.i = phi i64 [ %.pre2.i, %if.then.i._ZN12OutputStream4growEm.exit_crit_edge.i ], [ %add.i.i, %if.end7 ]
  %9 = phi i64 [ %.pre1.i, %if.then.i._ZN12OutputStream4growEm.exit_crit_edge.i ], [ %7, %if.end7 ]
  %10 = phi ptr [ %call.i.i, %if.then.i._ZN12OutputStream4growEm.exit_crit_edge.i ], [ %.pre.i, %if.end7 ]
  store i64 %inc.pre-phi.i, ptr %CurrentPosition.i.i, align 8
  %arrayidx.i = getelementptr inbounds i8, ptr %10, i64 %9
  store i8 0, ptr %arrayidx.i, align 1
  %cmp.not = icmp eq ptr %N, null
  br i1 %cmp.not, label %if.end11, label %if.then9

if.then9:                                         ; preds = %_ZN12OutputStreampLEc.exit
  %11 = load i64, ptr %CurrentPosition.i.i, align 8
  store i64 %11, ptr %N, align 8
  br label %if.end11

if.end11:                                         ; preds = %if.then9, %_ZN12OutputStreampLEc.exit
  %12 = load ptr, ptr %S, align 8
  br label %return

return:                                           ; preds = %if.then.i, %entry, %if.end11
  %retval.0 = phi ptr [ %12, %if.end11 ], [ null, %entry ], [ null, %if.then.i ]
  ret ptr %retval.0
}